target datalayout = "e-m:e-p270:32:32-p271:32:32-p272:64:64-i64:64-i128:128-f80:128-n8:16:32:64-S128"
target triple = "x86_64-pc-linux-gnu"

%struct._asn1_ctx_t = type { i32, i32, i8, ptr, ptr, ptr, ptr, ptr, %struct.anon, %struct.anon.2, %struct.anon.3, ptr }
%struct.anon = type { i32, i8, i8, i8, ptr, ptr, i32, i32, ptr, ptr, ptr, %union.anon }
%union.anon = type { %struct.anon.0 }
%struct.anon.0 = type { ptr }
%struct.anon.2 = type { ptr, ptr, ptr }
%struct.anon.3 = type { i32, i8, ptr, i32, i32, ptr, ptr, ptr, %union.anon.4 }
%union.anon.4 = type { %struct.anon.5 }
%struct.anon.5 = type { ptr }
%struct._packet_info = type { ptr, ptr, i32, i32, %struct.nstime_t, %struct.nstime_t, %struct.nstime_t, i32, ptr, ptr, ptr, ptr, %struct._address, %struct._address, %struct._address, %struct._address, %struct._address, %struct._address, i32, ptr, i32, %struct.anon.7, i32, i32, i32, i32, ptr, i32, ptr, ptr, i16, i16, i32, i32, i16, i32, i32, ptr, ptr, ptr, i8, i8, i16, i16, i16, i32, i16, i16, ptr, ptr, ptr, ptr, ptr, i32 }
%struct.nstime_t = type { i64, i32 }
%struct._address = type { i32, i32, ptr, ptr }
%struct.anon.7 = type { i8, [3 x i8] }

@ett_spnego_NegTokenInit = internal global i32 0, align 4
@ett_spnego_NegTokenInit2 = internal global i32 0, align 4

; Function Attrs: nounwind uwtable
define internal i32 @dissect_spnego_NegTokenInit(i1 noundef zeroext %0, ptr noundef %1, i32 noundef %2, ptr noundef %3, ptr noundef %4, i32 noundef %5) #0 {
  %7 = alloca i8, align 1
  %8 = alloca ptr, align 8
  %9 = alloca i32, align 4
  %10 = alloca ptr, align 8
  %11 = alloca ptr, align 8
  %12 = alloca i32, align 4
  %13 = zext i1 %0 to i8
  store i8 %13, ptr %7, align 1
  store ptr %1, ptr %8, align 8
  store i32 %2, ptr %9, align 4
  store ptr %3, ptr %10, align 8
  store ptr %4, ptr %11, align 8
  store i32 %5, ptr %12, align 4
  %14 = load i8, ptr %7, align 1
  %15 = trunc i8 %14 to i1
  %16 = load ptr, ptr %10, align 8
  %17 = load ptr, ptr %11, align 8
  %18 = load ptr, ptr %8, align 8
  %19 = load i32, ptr %9, align 4
  %20 = load i32, ptr %12, align 4
  %21 = load i32, ptr @ett_spnego_NegTokenInit, align 4
  %22 = call i32 @dissect_ber_sequence(i1 noundef zeroext %15, ptr noundef %16, ptr noundef %17, ptr noundef %18, i32 noundef %19, ptr noundef @NegTokenInit_sequence, i32 noundef %20, i32 noundef %21)
  store i32 %22, ptr %9, align 4
  %23 = load i32, ptr %9, align 4
  ret i32 %23
}

; Function Attrs: nounwind uwtable
define internal i32 @dissect_spnego_NegTokenInit2(i1 noundef zeroext %0, ptr noundef %1, i32 noundef %2, ptr noundef %3, ptr noundef %4, i32 noundef %5) #0 {
  %7 = alloca i8, align 1
  %8 = alloca ptr, align 8
  %9 = alloca i32, align 4
  %10 = alloca ptr, align 8
  %11 = alloca ptr, align 8
  %12 = alloca i32, align 4
  %13 = zext i1 %0 to i8
  store i8 %13, ptr %7, align 1
  store ptr %1, ptr %8, align 8
  store i32 %2, ptr %9, align 4
  store ptr %3, ptr %10, align 8
  store ptr %4, ptr %11, align 8
  store i32 %5, ptr %12, align 4
  %14 = load i8, ptr %7, align 1
  %15 = trunc i8 %14 to i1
  %16 = load ptr, ptr %10, align 8
  %17 = load ptr, ptr %11, align 8
  %18 = load ptr, ptr %8, align 8
  %19 = load i32, ptr %9, align 4
  %20 = load i32, ptr %12, align 4
  %21 = load i32, ptr @ett_spnego_NegTokenInit2, align 4
  %22 = call i32 @dissect_ber_sequence(i1 noundef zeroext %15, ptr noundef %16, ptr noundef %17, ptr noundef %18, i32 noundef %19, ptr noundef @NegTokenInit2_sequence, i32 noundef %20, i32 noundef %21)
  store i32 %22, ptr %9, align 4
  %23 = load i32, ptr %9, align 4
  ret i32 %23
}

; Function Attrs: nounwind uwtable
define internal i32 @dissect_spnego_T_negTokenInit(i1 noundef zeroext %0, ptr noundef %1, i32 noundef %2, ptr noundef %3, ptr noundef %4, i32 noundef %5) #0 {
  %7 = alloca i32, align 4
  %8 = alloca i8, align 1
  %9 = alloca ptr, align 8
  %10 = alloca i32, align 4
  %11 = alloca ptr, align 8
  %12 = alloca ptr, align 8
  %13 = alloca i32, align 4
  %14 = alloca i8, align 1
  %15 = zext i1 %0 to i8
  store i8 %15, ptr %8, align 1
  store ptr %1, ptr %9, align 8
  store i32 %2, ptr %10, align 4
  store ptr %3, ptr %11, align 8
  store ptr %4, ptr %12, align 8
  store i32 %5, ptr %13, align 4
  %16 = load ptr, ptr %11, align 8
  %17 = getelementptr inbounds %struct._asn1_ctx_t, ptr %16, i32 0, i32 3
  %18 = load ptr, ptr %17, align 8
  %19 = getelementptr inbounds %struct._packet_info, ptr %18, i32 0, i32 22
  %20 = load i32, ptr %19, align 8
  %21 = icmp eq i32 %20, 2
  br i1 %21, label %22, label %29

22:                                               ; preds = %6
  %23 = load ptr, ptr %11, align 8
  %24 = getelementptr inbounds %struct._asn1_ctx_t, ptr %23, i32 0, i32 3
  %25 = load ptr, ptr %24, align 8
  %26 = getelementptr inbounds %struct._packet_info, ptr %25, i32 0, i32 23
  %27 = load i32, ptr %26, align 4
  %28 = icmp ult i32 %27, 1024
  br label %29

29:                                               ; preds = %22, %6
  %30 = phi i1 [ false, %6 ], [ %28, %22 ]
  %31 = zext i1 %30 to i8
  store i8 %31, ptr %14, align 1
  %32 = load i8, ptr %14, align 1
  %33 = trunc i8 %32 to i1
  br i1 %33, label %34, label %43

34:                                               ; preds = %29
  %35 = load i8, ptr %8, align 1
  %36 = trunc i8 %35 to i1
  %37 = load ptr, ptr %9, align 8
  %38 = load i32, ptr %10, align 4
  %39 = load ptr, ptr %11, align 8
  %40 = load ptr, ptr %12, align 8
  %41 = load i32, ptr %13, align 4
  %42 = call i32 @dissect_spnego_NegTokenInit2(i1 noundef zeroext %36, ptr noundef %37, i32 noundef %38, ptr noundef %39, ptr noundef %40, i32 noundef %41)
  store i32 %42, ptr %7, align 4
  br label %52

43:                                               ; preds = %29
  %44 = load i8, ptr %8, align 1
  %45 = trunc i8 %44 to i1
  %46 = load ptr, ptr %9, align 8
  %47 = load i32, ptr %10, align 4
  %48 = load ptr, ptr %11, align 8
  %49 = load ptr, ptr %12, align 8
  %50 = load i32, ptr %13, align 4
  %51 = call i32 @dissect_spnego_NegTokenInit(i1 noundef zeroext %45, ptr noundef %46, i32 noundef %47, ptr noundef %48, ptr noundef %49, i32 noundef %50)
  store i32 %51, ptr %7, align 4
  br label %52

52:                                               ; preds = %43, %34
  %53 = load i32, ptr %7, align 4
  ret i32 %53
}