; Function Attrs: nounwind uwtable
define internal i32 @dissect_spnego_T_negTokenInit(i1 noundef zeroext %0, ptr noundef %1, i32 noundef %2, ptr noundef %3, ptr noundef %4, i32 noundef %5) #0 {
  %7 = getelementptr inbounds nuw i8, ptr %3, i64 16
  %8 = load ptr, ptr %7, align 8
  %9 = getelementptr inbounds nuw i8, ptr %8, i64 280
  %10 = load i32, ptr %9, align 8
  %11 = icmp eq i32 %10, 2
  br i1 %11, label %12, label %.critedge

12:                                               ; preds = %6
  %13 = getelementptr inbounds nuw i8, ptr %8, i64 284
  %14 = load i32, ptr %13, align 4
  %15 = icmp ult i32 %14, 1024
  br i1 %15, label %16, label %.critedge

.critedge:                                        ; preds = %6, %12
  br label %16

16:                                               ; preds = %12, %.critedge
  %ett_spnego_NegTokenInit.sink = phi ptr [ @ett_spnego_NegTokenInit, %.critedge ], [ @ett_spnego_NegTokenInit2, %12 ]
  %NegTokenInit_sequence.sink = phi ptr [ @NegTokenInit_sequence, %.critedge ], [ @NegTokenInit2_sequence, %12 ]
  %17 = load i32, ptr %ett_spnego_NegTokenInit.sink, align 4
  %18 = tail call i32 @dissect_ber_sequence(i1 noundef zeroext %0, ptr noundef nonnull %3, ptr noundef %4, ptr noundef %1, i32 noundef %2, ptr noundef nonnull %NegTokenInit_sequence.sink, i32 noundef %5, i32 noundef %17) #6
  ret i32 %18
}